; Function Attrs: nounwind uwtable
define dso_local void @fill_active_slots() local_unnamed_addr #3 {
  %1 = load ptr, ptr @active_queue_head, align 8, !tbaa !81
  %2 = load i32, ptr @active_requests, align 4, !tbaa !38
  %3 = load i32, ptr @max_requests, align 4, !tbaa !38
  %4 = icmp slt i32 %2, %3
  br i1 %4, label %.preheader, label %.critedge

.loopexit:                                        ; preds = %.lr.ph
  %5 = load i32, ptr @active_requests, align 4, !tbaa !38
  %6 = load i32, ptr @max_requests, align 4, !tbaa !38
  %7 = icmp slt i32 %5, %6
  br i1 %7, label %.preheader, label %.critedge

.preheader:                                       ; preds = %0, %.loopexit
  %.01119 = load ptr, ptr @fill_cfg, align 8, !tbaa !114
  %.not20 = icmp eq ptr %.01119, null
  br i1 %.not20, label %.critedge, label %.lr.ph

8:                                                ; preds = %.lr.ph
  %9 = getelementptr inbounds nuw i8, ptr %.01121, i64 16
  %.011 = load ptr, ptr %9, align 8, !tbaa !114
  %.not = icmp eq ptr %.011, null
  br i1 %.not, label %.critedge, label %.lr.ph, !llvm.loop !116

.lr.ph:                                           ; preds = %.preheader, %8
  %.01121 = phi ptr [ %.011, %8 ], [ %.01119, %.preheader ]
  %10 = getelementptr inbounds nuw i8, ptr %.01121, i64 8
  %11 = load ptr, ptr %10, align 8, !tbaa !112
  %12 = load ptr, ptr %.01121, align 8, !tbaa !109
  %13 = tail call i32 %11(ptr noundef %12) #22
  %.not14 = icmp eq i32 %13, 0
  br i1 %.not14, label %8, label %.loopexit

.critedge:                                        ; preds = %.loopexit, %.preheader, %8, %0
  %.not1522 = icmp eq ptr %1, null
  br i1 %.not1522, label %._crit_edge, label %.lr.ph24

.lr.ph24:                                         ; preds = %.critedge, %25
  %.01223 = phi ptr [ %27, %25 ], [ %1, %.critedge ]
  %14 = getelementptr inbounds nuw i8, ptr %.01223, i64 8
  %15 = load i32, ptr %14, align 8, !tbaa !90
  %.not16 = icmp eq i32 %15, 0
  br i1 %.not16, label %16, label %25

16:                                               ; preds = %.lr.ph24
  %17 = load ptr, ptr %.01223, align 8, !tbaa !87
  %.not17 = icmp eq ptr %17, null
  br i1 %.not17, label %25, label %18

18:                                               ; preds = %16
  %19 = load i32, ptr @curl_session_count, align 4, !tbaa !38
  %20 = load i32, ptr @min_curl_sessions, align 4, !tbaa !38
  %21 = icmp sgt i32 %19, %20
  br i1 %21, label %22, label %25

22:                                               ; preds = %18
  tail call void @curl_easy_cleanup(ptr noundef nonnull %17) #22
  store ptr null, ptr %.01223, align 8, !tbaa !87
  %23 = load i32, ptr @curl_session_count, align 4, !tbaa !38
  %24 = add nsw i32 %23, -1
  store i32 %24, ptr @curl_session_count, align 4, !tbaa !38
  br label %25

25:                                               ; preds = %22, %18, %16, %.lr.ph24
  %26 = getelementptr inbounds nuw i8, ptr %.01223, i64 56
  %27 = load ptr, ptr %26, align 8, !tbaa !83
  %.not15 = icmp eq ptr %27, null
  br i1 %.not15, label %._crit_edge, label %.lr.ph24, !llvm.loop !117

._crit_edge:                                      ; preds = %25, %.critedge
  ret void
}